; Function Attrs: mustprogress uwtable
define dso_local noundef i32 @_ZN11cmXMLParser5ParseEPKc(ptr noundef nonnull align 8 dereferenceable(40) %0, ptr noundef %1) unnamed_addr #7 align 2 {
  %3 = load ptr, ptr %0, align 8
  %4 = getelementptr inbounds i8, ptr %3, i64 32
  %5 = load ptr, ptr %4, align 8
  %6 = tail call noundef i32 %5(ptr noundef nonnull align 8 dereferenceable(40) %0)
  %.not = icmp eq i32 %6, 0
  br i1 %.not, label %20, label %7

7:                                                ; preds = %2
  %8 = tail call i64 @strlen(ptr noundef nonnull dereferenceable(1) %1) #17
  %9 = load ptr, ptr %0, align 8
  %10 = getelementptr inbounds i8, ptr %9, i64 40
  %11 = load ptr, ptr %10, align 8
  %12 = tail call noundef i32 %11(ptr noundef nonnull align 8 dereferenceable(40) %0, ptr noundef %1, i64 noundef %8)
  %.not3 = icmp eq i32 %12, 0
  br i1 %.not3, label %20, label %13

13:                                               ; preds = %7
  %14 = load ptr, ptr %0, align 8
  %15 = getelementptr inbounds i8, ptr %14, i64 48
  %16 = load ptr, ptr %15, align 8
  %17 = tail call noundef i32 %16(ptr noundef nonnull align 8 dereferenceable(40) %0)
  %18 = icmp ne i32 %17, 0
  %19 = zext i1 %18 to i32
  br label %20

20:                                               ; preds = %13, %7, %2
  %21 = phi i32 [ 0, %7 ], [ 0, %2 ], [ %19, %13 ]
  ret i32 %21
}